; Function Attrs: mustprogress nounwind ssp willreturn memory(argmem: readwrite, inaccessiblemem: readwrite) uwtable
define void @_ZN6open3d4core16MemoryManagerCPU4FreeEPvRKNS0_6DeviceE(ptr nonnull readnone align 8 captures(none) %0, ptr noundef captures(address_is_null) %1, ptr nonnull readnone align 4 captures(none) %2) unnamed_addr #3 align 2 {
  %.not = icmp eq ptr %1, null
  br i1 %.not, label %5, label %4

4:                                                ; preds = %3
  tail call void @free(ptr noundef nonnull %1) #19
  br label %5

5:                                                ; preds = %4, %3
  ret void
}